target datalayout = "e-m:e-p270:32:32-p271:32:32-p272:64:64-i64:64-i128:128-f80:128-n8:16:32:64-S128"
target triple = "x86_64-pc-linux-gnu"

@pg_data = internal global ptr null, align 8
@.str.42 = private unnamed_addr constant [27 x i8] c"creating directory %s ... \00", align 1
@stdout = external global ptr, align 8
@pg_dir_create_mode = external global i32, align 4
@.str.43 = private unnamed_addr constant [36 x i8] c"could not create directory \22%s\22: %m\00", align 1
@.str.44 = private unnamed_addr constant [49 x i8] c"fixing permissions on existing directory %s ... \00", align 1
@.str.45 = private unnamed_addr constant [51 x i8] c"could not change permissions of directory \22%s\22: %m\00", align 1
@.str.46 = private unnamed_addr constant [39 x i8] c"directory \22%s\22 exists but is not empty\00", align 1
@.str.48 = private unnamed_addr constant [36 x i8] c"could not access directory \22%s\22: %m\00", align 1
@.str.49 = private unnamed_addr constant [10 x i8] c"%s/pg_wal\00", align 1
@xlog_dir = internal global ptr null, align 8
@.str.50 = private unnamed_addr constant [48 x i8] c"WAL directory location must be an absolute path\00", align 1
@made_new_xlogdir = internal global i8 0, align 1
@found_existing_xlogdir = internal global i8 0, align 1
@.str.51 = private unnamed_addr constant [79 x i8] c"If you want to store the WAL there, either remove or empty the directory \22%s\22.\00", align 1
@.str.52 = private unnamed_addr constant [40 x i8] c"could not create symbolic link \22%s\22: %m\00", align 1

; Function Attrs: nounwind uwtable
define dso_local void @create_xlog_or_symlink() #0 {
  %1 = alloca ptr, align 8
  %2 = alloca i32, align 4
  call void @llvm.lifetime.start.p0(i64 8, ptr %1) #10
  %3 = load ptr, ptr @pg_data, align 8
  %4 = call ptr (ptr, ...) @psprintf(ptr noundef @.str.49, ptr noundef %3)
  store ptr %4, ptr %1, align 8
  %5 = load ptr, ptr @xlog_dir, align 8
  %6 = icmp ne ptr %5, null
  br i1 %6, label %7, label %78

7:                                                ; preds = %0
  call void @llvm.lifetime.start.p0(i64 4, ptr %2) #10
  %8 = load ptr, ptr @xlog_dir, align 8
  call void @canonicalize_path(ptr noundef %8)
  %9 = load ptr, ptr @xlog_dir, align 8
  %10 = getelementptr inbounds i8, ptr %9, i64 0
  %11 = load i8, ptr %10, align 1
  %12 = sext i8 %11 to i32
  %13 = icmp eq i32 %12, 47
  br i1 %13, label %18, label %14

14:                                               ; preds = %7
  br label %15

15:                                               ; preds = %14
  call void (i32, i32, ptr, ...) @pg_log_generic(i32 noundef 4, i32 noundef 0, ptr noundef @.str.50)
  call void @exit(i32 noundef 1) #12
  unreachable

16:                                               ; No predecessors!
  br label %17

17:                                               ; preds = %16
  br label %18

18:                                               ; preds = %17, %7
  %19 = load ptr, ptr @xlog_dir, align 8
  %20 = call i32 @pg_check_dir(ptr noundef %19)
  store i32 %20, ptr %2, align 4
  switch i32 %20, label %62 [
    i32 0, label %21
    i32 1, label %37
    i32 2, label %53
    i32 3, label %53
    i32 4, label %53
  ]

21:                                               ; preds = %18
  %22 = load ptr, ptr @xlog_dir, align 8
  %23 = call i32 (ptr, ...) @pg_printf(ptr noundef @.str.42, ptr noundef %22)
  %24 = load ptr, ptr @stdout, align 8
  %25 = call i32 @fflush(ptr noundef %24)
  %26 = load ptr, ptr @xlog_dir, align 8
  %27 = load i32, ptr @pg_dir_create_mode, align 4
  %28 = call i32 @pg_mkdir_p(ptr noundef %26, i32 noundef %27)
  %29 = icmp ne i32 %28, 0
  br i1 %29, label %30, label %35

30:                                               ; preds = %21
  br label %31

31:                                               ; preds = %30
  %32 = load ptr, ptr @xlog_dir, align 8
  call void (i32, i32, ptr, ...) @pg_log_generic(i32 noundef 4, i32 noundef 0, ptr noundef @.str.43, ptr noundef %32)
  call void @exit(i32 noundef 1) #12
  unreachable

33:                                               ; No predecessors!
  br label %34

34:                                               ; preds = %33
  br label %36

35:                                               ; preds = %21
  call void @check_ok()
  br label %36

36:                                               ; preds = %35, %34
  store i8 1, ptr @made_new_xlogdir, align 1
  br label %67

37:                                               ; preds = %18
  %38 = load ptr, ptr @xlog_dir, align 8
  %39 = call i32 (ptr, ...) @pg_printf(ptr noundef @.str.44, ptr noundef %38)
  %40 = load ptr, ptr @stdout, align 8
  %41 = call i32 @fflush(ptr noundef %40)
  %42 = load ptr, ptr @xlog_dir, align 8
  %43 = load i32, ptr @pg_dir_create_mode, align 4
  %44 = call i32 @chmod(ptr noundef %42, i32 noundef %43) #10
  %45 = icmp ne i32 %44, 0
  br i1 %45, label %46, label %51

46:                                               ; preds = %37
  br label %47

47:                                               ; preds = %46
  %48 = load ptr, ptr @xlog_dir, align 8
  call void (i32, i32, ptr, ...) @pg_log_generic(i32 noundef 4, i32 noundef 0, ptr noundef @.str.45, ptr noundef %48)
  call void @exit(i32 noundef 1) #12
  unreachable

49:                                               ; No predecessors!
  br label %50

50:                                               ; preds = %49
  br label %52

51:                                               ; preds = %37
  call void @check_ok()
  br label %52

52:                                               ; preds = %51, %50
  store i8 1, ptr @found_existing_xlogdir, align 1
  br label %67

53:                                               ; preds = %18, %18, %18
  %54 = load ptr, ptr @xlog_dir, align 8
  call void (i32, i32, ptr, ...) @pg_log_generic(i32 noundef 4, i32 noundef 0, ptr noundef @.str.46, ptr noundef %54)
  %55 = load i32, ptr %2, align 4
  %56 = icmp ne i32 %55, 4
  br i1 %56, label %57, label %59

57:                                               ; preds = %53
  %58 = load i32, ptr %2, align 4
  call void @warn_on_mount_point(i32 noundef %58)
  br label %61

59:                                               ; preds = %53
  %60 = load ptr, ptr @xlog_dir, align 8
  call void (i32, i32, ptr, ...) @pg_log_generic(i32 noundef 4, i32 noundef 2, ptr noundef @.str.51, ptr noundef %60)
  br label %61

61:                                               ; preds = %59, %57
  call void @exit(i32 noundef 1) #12
  unreachable

62:                                               ; preds = %18
  br label %63

63:                                               ; preds = %62
  %64 = load ptr, ptr @xlog_dir, align 8
  call void (i32, i32, ptr, ...) @pg_log_generic(i32 noundef 4, i32 noundef 0, ptr noundef @.str.48, ptr noundef %64)
  call void @exit(i32 noundef 1) #12
  unreachable

65:                                               ; No predecessors!
  br label %66

66:                                               ; preds = %65
  br label %67

67:                                               ; preds = %66, %52, %36
  %68 = load ptr, ptr @xlog_dir, align 8
  %69 = load ptr, ptr %1, align 8
  %70 = call i32 @symlink(ptr noundef %68, ptr noundef %69) #10
  %71 = icmp ne i32 %70, 0
  br i1 %71, label %72, label %77

72:                                               ; preds = %67
  br label %73

73:                                               ; preds = %72
  %74 = load ptr, ptr %1, align 8
  call void (i32, i32, ptr, ...) @pg_log_generic(i32 noundef 4, i32 noundef 0, ptr noundef @.str.52, ptr noundef %74)
  call void @exit(i32 noundef 1) #12
  unreachable

75:                                               ; No predecessors!
  br label %76

76:                                               ; preds = %75
  br label %77

77:                                               ; preds = %76, %67
  call void @llvm.lifetime.end.p0(i64 4, ptr %2) #10
  br label %89

78:                                               ; preds = %0
  %79 = load ptr, ptr %1, align 8
  %80 = load i32, ptr @pg_dir_create_mode, align 4
  %81 = call i32 @mkdir(ptr noundef %79, i32 noundef %80) #10
  %82 = icmp slt i32 %81, 0
  br i1 %82, label %83, label %88

83:                                               ; preds = %78
  br label %84

84:                                               ; preds = %83
  %85 = load ptr, ptr %1, align 8
  call void (i32, i32, ptr, ...) @pg_log_generic(i32 noundef 4, i32 noundef 0, ptr noundef @.str.43, ptr noundef %85)
  call void @exit(i32 noundef 1) #12
  unreachable

86:                                               ; No predecessors!
  br label %87

87:                                               ; preds = %86
  br label %88

88:                                               ; preds = %87, %78
  br label %89

89:                                               ; preds = %88, %77
  %90 = load ptr, ptr %1, align 8
  call void @free(ptr noundef %90) #10
  call void @llvm.lifetime.end.p0(i64 8, ptr %1) #10
  ret void
}