; Function Attrs: nounwind uwtable
define dso_local void @create_xlog_or_symlink() local_unnamed_addr #0 {
  %1 = load ptr, ptr @pg_data, align 8
  %2 = tail call ptr (ptr, ...) @psprintf(ptr noundef nonnull @.str.49, ptr noundef %1) #19
  %3 = load ptr, ptr @xlog_dir, align 8
  %.not = icmp eq ptr %3, null
  br i1 %.not, label %43, label %4

4:                                                ; preds = %0
  tail call void @canonicalize_path(ptr noundef nonnull %3) #19
  %5 = load ptr, ptr @xlog_dir, align 8
  %6 = load i8, ptr %5, align 1
  %7 = icmp eq i8 %6, 47
  br i1 %7, label %9, label %8

8:                                                ; preds = %4
  tail call void (i32, i32, ptr, ...) @pg_log_generic(i32 noundef 4, i32 noundef 0, ptr noundef nonnull @.str.50) #19
  tail call void @exit(i32 noundef 1) #20
  unreachable

9:                                                ; preds = %4
  %10 = tail call i32 @pg_check_dir(ptr noundef nonnull %5) #19
  switch i32 %10, label %37 [
    i32 0, label %11
    i32 1, label %21
    i32 2, label %31
    i32 3, label %31
    i32 4, label %31
  ]

11:                                               ; preds = %9
  %12 = load ptr, ptr @xlog_dir, align 8
  %13 = tail call i32 (ptr, ...) @pg_printf(ptr noundef nonnull @.str.42, ptr noundef %12) #19
  %14 = load ptr, ptr @stdout, align 8
  %15 = tail call i32 @fflush(ptr noundef %14)
  %16 = load ptr, ptr @xlog_dir, align 8
  %17 = load i32, ptr @pg_dir_create_mode, align 4
  %18 = tail call i32 @pg_mkdir_p(ptr noundef %16, i32 noundef %17) #19
  %.not9 = icmp eq i32 %18, 0
  br i1 %.not9, label %39, label %19

19:                                               ; preds = %11
  %20 = load ptr, ptr @xlog_dir, align 8
  tail call void (i32, i32, ptr, ...) @pg_log_generic(i32 noundef 4, i32 noundef 0, ptr noundef nonnull @.str.43, ptr noundef %20) #19
  tail call void @exit(i32 noundef 1) #20
  unreachable

21:                                               ; preds = %9
  %22 = load ptr, ptr @xlog_dir, align 8
  %23 = tail call i32 (ptr, ...) @pg_printf(ptr noundef nonnull @.str.44, ptr noundef %22) #19
  %24 = load ptr, ptr @stdout, align 8
  %25 = tail call i32 @fflush(ptr noundef %24)
  %26 = load ptr, ptr @xlog_dir, align 8
  %27 = load i32, ptr @pg_dir_create_mode, align 4
  %28 = tail call i32 @chmod(ptr noundef %26, i32 noundef %27) #19
  %.not8 = icmp eq i32 %28, 0
  br i1 %.not8, label %39, label %29

29:                                               ; preds = %21
  %30 = load ptr, ptr @xlog_dir, align 8
  tail call void (i32, i32, ptr, ...) @pg_log_generic(i32 noundef 4, i32 noundef 0, ptr noundef nonnull @.str.45, ptr noundef %30) #19
  tail call void @exit(i32 noundef 1) #20
  unreachable

31:                                               ; preds = %9, %9, %9
  %32 = load ptr, ptr @xlog_dir, align 8
  tail call void (i32, i32, ptr, ...) @pg_log_generic(i32 noundef 4, i32 noundef 0, ptr noundef nonnull @.str.46, ptr noundef %32) #19
  %.not7 = icmp eq i32 %10, 4
  br i1 %.not7, label %34, label %33

33:                                               ; preds = %31
  tail call void @warn_on_mount_point(i32 noundef %10)
  br label %36

34:                                               ; preds = %31
  %35 = load ptr, ptr @xlog_dir, align 8
  tail call void (i32, i32, ptr, ...) @pg_log_generic(i32 noundef 4, i32 noundef 2, ptr noundef nonnull @.str.51, ptr noundef %35) #19
  br label %36

36:                                               ; preds = %34, %33
  tail call void @exit(i32 noundef 1) #20
  unreachable

37:                                               ; preds = %9
  %38 = load ptr, ptr @xlog_dir, align 8
  tail call void (i32, i32, ptr, ...) @pg_log_generic(i32 noundef 4, i32 noundef 0, ptr noundef nonnull @.str.48, ptr noundef %38) #19
  tail call void @exit(i32 noundef 1) #20
  unreachable

39:                                               ; preds = %21, %11
  %found_existing_xlogdir.sink = phi ptr [ @made_new_xlogdir, %11 ], [ @found_existing_xlogdir, %21 ]
  tail call fastcc void @check_ok()
  store i1 true, ptr %found_existing_xlogdir.sink, align 1
  %40 = load ptr, ptr @xlog_dir, align 8
  %41 = tail call i32 @symlink(ptr noundef %40, ptr noundef %2) #19
  %.not10 = icmp eq i32 %41, 0
  br i1 %.not10, label %48, label %42

42:                                               ; preds = %39
  tail call void (i32, i32, ptr, ...) @pg_log_generic(i32 noundef 4, i32 noundef 0, ptr noundef nonnull @.str.52, ptr noundef %2) #19
  tail call void @exit(i32 noundef 1) #20
  unreachable

43:                                               ; preds = %0
  %44 = load i32, ptr @pg_dir_create_mode, align 4
  %45 = tail call i32 @mkdir(ptr noundef %2, i32 noundef %44) #19
  %46 = icmp slt i32 %45, 0
  br i1 %46, label %47, label %48

47:                                               ; preds = %43
  tail call void (i32, i32, ptr, ...) @pg_log_generic(i32 noundef 4, i32 noundef 0, ptr noundef nonnull @.str.43, ptr noundef %2) #19
  tail call void @exit(i32 noundef 1) #20
  unreachable

48:                                               ; preds = %39, %43
  tail call void @free(ptr noundef %2) #19
  ret void
}